; Function Attrs: nounwind sspstrong uwtable
define internal noundef i64 @one_eqq(i64 %0, i64 noundef %1, i32 noundef %2, ptr noundef %3, i64 %4) #0 {
  %6 = alloca i64, align 8
  switch i32 %2, label %9 [
    i32 0, label %rb_enum_values_pack.exit
    i32 1, label %7
  ]

7:                                                ; preds = %5
  %8 = load i64, ptr %3, align 8, !tbaa !7
  br label %rb_enum_values_pack.exit

9:                                                ; preds = %5
  %10 = sext i32 %2 to i64
  %11 = tail call i64 @rb_ary_new_from_values(i64 noundef %10, ptr noundef %3) #14
  br label %rb_enum_values_pack.exit

rb_enum_values_pack.exit:                         ; preds = %5, %7, %9
  %.0.i = phi i64 [ %8, %7 ], [ %11, %9 ], [ 4, %5 ]
  store i64 %.0.i, ptr %6, align 8, !tbaa !7
  %12 = inttoptr i64 %1 to ptr
  %13 = getelementptr inbounds nuw i8, ptr %12, i64 24
  %14 = load i64, ptr %13, align 8, !tbaa !67
  %15 = call i64 @rb_funcallv(i64 noundef %14, i64 noundef 141, i32 noundef 1, ptr noundef nonnull %6) #14
  %16 = and i64 %15, -5
  %.not.i = icmp eq i64 %16, 0
  br i1 %.not.i, label %enum_one_func.exit, label %17

17:                                               ; preds = %rb_enum_values_pack.exit
  %18 = getelementptr inbounds nuw i8, ptr %12, i64 16
  %19 = load i64, ptr %18, align 8, !tbaa !60
  switch i64 %19, label %enum_one_func.exit [
    i64 36, label %20
    i64 20, label %21
  ]

20:                                               ; preds = %17
  store i64 20, ptr %18, align 8, !tbaa !7
  br label %enum_one_func.exit

21:                                               ; preds = %17
  store i64 0, ptr %18, align 8, !tbaa !7
  call void @rb_iter_break() #15
  unreachable

enum_one_func.exit:                               ; preds = %rb_enum_values_pack.exit, %17, %20
  ret i64 4
}